target datalayout = "e-m:e-p270:32:32-p271:32:32-p272:64:64-i64:64-i128:128-f80:128-n8:16:32:64-S128"
target triple = "x86_64-pc-linux-gnu"

%"class.base::HistogramSamples" = type { ptr, %"struct.base::HistogramSamples::Metadata", ptr }
%"struct.base::HistogramSamples::Metadata" = type <{ i64, i64, i32, [4 x i8] }>
%"class.base::(anonymous namespace)::SampleCountPickleIterator" = type <{ %"class.base::SampleCountIterator", ptr, i32, i32, i32, i8, [3 x i8] }>
%"class.base::SampleCountIterator" = type { ptr }
%"struct.std::__atomic_base" = type { i64 }
%"struct.std::__atomic_base.3" = type { i32 }

; Function Attrs: alwaysinline mustprogress nounwind uwtable
define linkonce_odr noundef i64 @_ZNVSt13__atomic_baseIlE9fetch_addElSt12memory_order(ptr noundef nonnull align 8 dereferenceable(8) %0, i64 noundef %1, i32 noundef %2) #6 comdat align 2 {
  %4 = alloca ptr, align 8
  %5 = alloca i64, align 8
  %6 = alloca i32, align 4
  %7 = alloca i64, align 8
  %8 = alloca i64, align 8
  store ptr %0, ptr %4, align 8, !tbaa !46
  store i64 %1, ptr %5, align 8, !tbaa !8
  store i32 %2, ptr %6, align 4, !tbaa !48
  %9 = load ptr, ptr %4, align 8
  %10 = getelementptr inbounds nuw %"struct.std::__atomic_base", ptr %9, i32 0, i32 0
  %11 = load i32, ptr %6, align 4, !tbaa !48
  %12 = load i64, ptr %5, align 8, !tbaa !8
  store i64 %12, ptr %7, align 8, !tbaa !8
  switch i32 %11, label %13 [
    i32 1, label %16
    i32 2, label %16
    i32 3, label %19
    i32 4, label %22
    i32 5, label %25
  ]

13:                                               ; preds = %3
  %14 = load i64, ptr %7, align 8
  %15 = atomicrmw volatile add ptr %10, i64 %14 monotonic, align 8
  store i64 %15, ptr %8, align 8
  br label %28

16:                                               ; preds = %3, %3
  %17 = load i64, ptr %7, align 8
  %18 = atomicrmw volatile add ptr %10, i64 %17 acquire, align 8
  store i64 %18, ptr %8, align 8
  br label %28

19:                                               ; preds = %3
  %20 = load i64, ptr %7, align 8
  %21 = atomicrmw volatile add ptr %10, i64 %20 release, align 8
  store i64 %21, ptr %8, align 8
  br label %28

22:                                               ; preds = %3
  %23 = load i64, ptr %7, align 8
  %24 = atomicrmw volatile add ptr %10, i64 %23 acq_rel, align 8
  store i64 %24, ptr %8, align 8
  br label %28

25:                                               ; preds = %3
  %26 = load i64, ptr %7, align 8
  %27 = atomicrmw volatile add ptr %10, i64 %26 seq_cst, align 8
  store i64 %27, ptr %8, align 8
  br label %28

28:                                               ; preds = %25, %22, %19, %16, %13
  %29 = load i64, ptr %8, align 8, !tbaa !8
  ret i64 %29
}

; Function Attrs: inlinehint mustprogress nounwind uwtable
define linkonce_odr void @_ZN4base19SampleCountIteratorC2Ev(ptr noundef nonnull align 8 dereferenceable(8) %0) unnamed_addr #3 comdat align 2 {
  %2 = alloca ptr, align 8
  store ptr %0, ptr %2, align 8, !tbaa !30
  %3 = load ptr, ptr %2, align 8
  store ptr getelementptr inbounds inrange(-16, 48) ({ [8 x ptr] }, ptr @_ZTVN4base19SampleCountIteratorE, i32 0, i32 0, i32 2), ptr %3, align 8, !tbaa !10
  ret void
}

; Function Attrs: alwaysinline mustprogress nounwind uwtable
define linkonce_odr noundef i32 @_ZNVSt13__atomic_baseIiE9fetch_addEiSt12memory_order(ptr noundef nonnull align 4 dereferenceable(4) %0, i32 noundef %1, i32 noundef %2) #6 comdat align 2 {
  %4 = alloca ptr, align 8
  %5 = alloca i32, align 4
  %6 = alloca i32, align 4
  %7 = alloca i32, align 4
  %8 = alloca i32, align 4
  store ptr %0, ptr %4, align 8, !tbaa !52
  store i32 %1, ptr %5, align 4, !tbaa !25
  store i32 %2, ptr %6, align 4, !tbaa !48
  %9 = load ptr, ptr %4, align 8
  %10 = getelementptr inbounds nuw %"struct.std::__atomic_base.3", ptr %9, i32 0, i32 0
  %11 = load i32, ptr %6, align 4, !tbaa !48
  %12 = load i32, ptr %5, align 4, !tbaa !25
  store i32 %12, ptr %7, align 4, !tbaa !25
  switch i32 %11, label %13 [
    i32 1, label %16
    i32 2, label %16
    i32 3, label %19
    i32 4, label %22
    i32 5, label %25
  ]

13:                                               ; preds = %3
  %14 = load i32, ptr %7, align 4
  %15 = atomicrmw volatile add ptr %10, i32 %14 monotonic, align 4
  store i32 %15, ptr %8, align 4
  br label %28

16:                                               ; preds = %3, %3
  %17 = load i32, ptr %7, align 4
  %18 = atomicrmw volatile add ptr %10, i32 %17 acquire, align 4
  store i32 %18, ptr %8, align 4
  br label %28

19:                                               ; preds = %3
  %20 = load i32, ptr %7, align 4
  %21 = atomicrmw volatile add ptr %10, i32 %20 release, align 4
  store i32 %21, ptr %8, align 4
  br label %28

22:                                               ; preds = %3
  %23 = load i32, ptr %7, align 4
  %24 = atomicrmw volatile add ptr %10, i32 %23 acq_rel, align 4
  store i32 %24, ptr %8, align 4
  br label %28

25:                                               ; preds = %3
  %26 = load i32, ptr %7, align 4
  %27 = atomicrmw volatile add ptr %10, i32 %26 seq_cst, align 4
  store i32 %27, ptr %8, align 4
  br label %28

28:                                               ; preds = %25, %22, %19, %16, %13
  %29 = load i32, ptr %8, align 4, !tbaa !25
  ret i32 %29
}

; Function Attrs: inlinehint mustprogress nounwind uwtable
define linkonce_odr noundef i64 @_ZN4base6subtle25NoBarrier_AtomicIncrementEPVll(ptr noundef %0, i64 noundef %1) #3 comdat {
  %3 = alloca ptr, align 8
  %4 = alloca i64, align 8
  store ptr %0, ptr %3, align 8, !tbaa !44
  store i64 %1, ptr %4, align 8, !tbaa !8
  %5 = load i64, ptr %4, align 8, !tbaa !8
  %6 = load ptr, ptr %3, align 8, !tbaa !44
  %7 = load i64, ptr %4, align 8, !tbaa !8
  %8 = call noundef i64 @_ZNVSt13__atomic_baseIlE9fetch_addElSt12memory_order(ptr noundef nonnull align 8 dereferenceable(8) %6, i64 noundef %7, i32 noundef 0) #10
  %9 = add nsw i64 %5, %8
  ret i64 %9
}

; Function Attrs: mustprogress nounwind uwtable
define void @_ZN4base19SampleCountIteratorD2Ev(ptr noundef nonnull align 8 dereferenceable(8) %0) unnamed_addr #1 align 2 {
  %2 = alloca ptr, align 8
  store ptr %0, ptr %2, align 8, !tbaa !30
  ret void
}

; Function Attrs: mustprogress uwtable
define internal void @_ZN4base12_GLOBAL__N_125SampleCountPickleIteratorC2EPNS_14PickleIteratorE(ptr noundef nonnull align 8 dereferenceable(29) %0, ptr noundef %1) unnamed_addr #0 align 2 personality ptr @__gxx_personality_v0 {
  %3 = alloca ptr, align 8
  %4 = alloca ptr, align 8
  %5 = alloca ptr, align 8
  %6 = alloca i32, align 4
  store ptr %0, ptr %3, align 8, !tbaa !34
  store ptr %1, ptr %4, align 8, !tbaa !32
  %7 = load ptr, ptr %3, align 8
  call void @_ZN4base19SampleCountIteratorC2Ev(ptr noundef nonnull align 8 dereferenceable(8) %7) #10
  store ptr getelementptr inbounds inrange(-16, 48) ({ [8 x ptr] }, ptr @_ZTVN4base12_GLOBAL__N_125SampleCountPickleIteratorE, i32 0, i32 0, i32 2), ptr %7, align 8, !tbaa !10
  %8 = getelementptr inbounds nuw %"class.base::(anonymous namespace)::SampleCountPickleIterator", ptr %7, i32 0, i32 1
  %9 = load ptr, ptr %4, align 8, !tbaa !32
  store ptr %9, ptr %8, align 8, !tbaa !36
  %10 = getelementptr inbounds nuw %"class.base::(anonymous namespace)::SampleCountPickleIterator", ptr %7, i32 0, i32 5
  store i8 0, ptr %10, align 4, !tbaa !39
  %11 = load ptr, ptr %7, align 8, !tbaa !10
  %12 = getelementptr inbounds ptr, ptr %11, i64 3
  %13 = load ptr, ptr %12, align 8
  invoke void %13(ptr noundef nonnull align 8 dereferenceable(29) %7)
          to label %14 unwind label %15

14:                                               ; preds = %2
  ret void

15:                                               ; preds = %2
  %16 = landingpad { ptr, i32 }
          cleanup
  %17 = extractvalue { ptr, i32 } %16, 0
  store ptr %17, ptr %5, align 8
  %18 = extractvalue { ptr, i32 } %16, 1
  store i32 %18, ptr %6, align 4
  call void @_ZN4base19SampleCountIteratorD2Ev(ptr noundef nonnull align 8 dereferenceable(8) %7) #10
  br label %19

19:                                               ; preds = %15
  %20 = load ptr, ptr %5, align 8
  %21 = load i32, ptr %6, align 4
  %22 = insertvalue { ptr, i32 } poison, ptr %20, 0
  %23 = insertvalue { ptr, i32 } %22, i32 %21, 1
  resume { ptr, i32 } %23
}

; Function Attrs: inlinehint mustprogress nounwind uwtable
define linkonce_odr noundef i32 @_ZN4base6subtle25NoBarrier_AtomicIncrementEPVii(ptr noundef %0, i32 noundef %1) #3 comdat {
  %3 = alloca ptr, align 8
  %4 = alloca i32, align 4
  store ptr %0, ptr %3, align 8, !tbaa !23
  store i32 %1, ptr %4, align 4, !tbaa !25
  %5 = load i32, ptr %4, align 4, !tbaa !25
  %6 = load ptr, ptr %3, align 8, !tbaa !23
  %7 = load i32, ptr %4, align 4, !tbaa !25
  %8 = call noundef i32 @_ZNVSt13__atomic_baseIiE9fetch_addEiSt12memory_order(ptr noundef nonnull align 4 dereferenceable(4) %6, i32 noundef %7, i32 noundef 0) #10
  %9 = add nsw i32 %5, %8
  ret i32 %9
}

; Function Attrs: mustprogress uwtable
define void @_ZN4base16HistogramSamples11IncreaseSumEl(ptr noundef nonnull align 8 dereferenceable(40) %0, i64 noundef %1) #0 align 2 {
  %3 = alloca ptr, align 8
  %4 = alloca i64, align 8
  store ptr %0, ptr %3, align 8, !tbaa !3
  store i64 %1, ptr %4, align 8, !tbaa !8
  %5 = load ptr, ptr %3, align 8
  %6 = getelementptr inbounds nuw %"class.base::HistogramSamples", ptr %5, i32 0, i32 2
  %7 = load ptr, ptr %6, align 8, !tbaa !12
  %8 = getelementptr inbounds nuw %"struct.base::HistogramSamples::Metadata", ptr %7, i32 0, i32 1
  %9 = load i64, ptr %4, align 8, !tbaa !8
  %10 = call noundef i64 @_ZN4base6subtle25NoBarrier_AtomicIncrementEPVll(ptr noundef %8, i64 noundef %9)
  ret void
}

; Function Attrs: mustprogress uwtable
define noundef zeroext i1 @_ZN4base16HistogramSamples13AddFromPickleEPNS_14PickleIteratorE(ptr noundef nonnull align 8 dereferenceable(40) %0, ptr noundef %1) unnamed_addr #0 align 2 personality ptr @__gxx_personality_v0 {
  %3 = alloca i1, align 1
  %4 = alloca ptr, align 8
  %5 = alloca ptr, align 8
  %6 = alloca i64, align 8
  %7 = alloca i32, align 4
  %8 = alloca i32, align 4
  %9 = alloca %"class.base::(anonymous namespace)::SampleCountPickleIterator", align 8
  %10 = alloca ptr, align 8
  %11 = alloca i32, align 4
  store ptr %0, ptr %4, align 8, !tbaa !3
  store ptr %1, ptr %5, align 8, !tbaa !32
  %12 = load ptr, ptr %4, align 8
  call void @llvm.lifetime.start.p0(i64 8, ptr %6) #10
  call void @llvm.lifetime.start.p0(i64 4, ptr %7) #10
  %13 = load ptr, ptr %5, align 8, !tbaa !32
  %14 = call noundef zeroext i1 @_ZN4base14PickleIterator9ReadInt64EPl(ptr noundef nonnull align 8 dereferenceable(24) %13, ptr noundef %6)
  br i1 %14, label %15, label %18

15:                                               ; preds = %2
  %16 = load ptr, ptr %5, align 8, !tbaa !32
  %17 = call noundef zeroext i1 @_ZN4base14PickleIterator7ReadIntEPi(ptr noundef nonnull align 8 dereferenceable(24) %16, ptr noundef %7)
  br i1 %17, label %19, label %18

18:                                               ; preds = %15, %2
  store i1 false, ptr %3, align 1
  store i32 1, ptr %8, align 4
  br label %36

19:                                               ; preds = %15
  %20 = load i64, ptr %6, align 8, !tbaa !8
  call void @_ZN4base16HistogramSamples11IncreaseSumEl(ptr noundef nonnull align 8 dereferenceable(40) %12, i64 noundef %20)
  %21 = getelementptr inbounds nuw %"class.base::HistogramSamples", ptr %12, i32 0, i32 2
  %22 = load ptr, ptr %21, align 8, !tbaa !12
  %23 = getelementptr inbounds nuw %"struct.base::HistogramSamples::Metadata", ptr %22, i32 0, i32 2
  %24 = load i32, ptr %7, align 4, !tbaa !25
  %25 = call noundef i32 @_ZN4base6subtle25NoBarrier_AtomicIncrementEPVii(ptr noundef %23, i32 noundef %24)
  call void @llvm.lifetime.start.p0(i64 32, ptr %9) #10
  %26 = load ptr, ptr %5, align 8, !tbaa !32
  call void @_ZN4base12_GLOBAL__N_125SampleCountPickleIteratorC2EPNS_14PickleIteratorE(ptr noundef nonnull align 8 dereferenceable(29) %9, ptr noundef %26)
  %27 = load ptr, ptr %12, align 8, !tbaa !10
  %28 = getelementptr inbounds ptr, ptr %27, i64 10
  %29 = load ptr, ptr %28, align 8
  %30 = invoke noundef zeroext i1 %29(ptr noundef nonnull align 8 dereferenceable(40) %12, ptr noundef %9, i32 noundef 0)
          to label %31 unwind label %32

31:                                               ; preds = %19
  store i1 %30, ptr %3, align 1
  store i32 1, ptr %8, align 4
  call void @_ZN4base19SampleCountIteratorD2Ev(ptr noundef nonnull align 8 dereferenceable(29) %9) #10
  call void @llvm.lifetime.end.p0(i64 32, ptr %9) #10
  br label %36

32:                                               ; preds = %19
  %33 = landingpad { ptr, i32 }
          cleanup
  %34 = extractvalue { ptr, i32 } %33, 0
  store ptr %34, ptr %10, align 8
  %35 = extractvalue { ptr, i32 } %33, 1
  store i32 %35, ptr %11, align 4
  call void @_ZN4base19SampleCountIteratorD2Ev(ptr noundef nonnull align 8 dereferenceable(29) %9) #10
  call void @llvm.lifetime.end.p0(i64 32, ptr %9) #10
  call void @llvm.lifetime.end.p0(i64 4, ptr %7) #10
  call void @llvm.lifetime.end.p0(i64 8, ptr %6) #10
  br label %38

36:                                               ; preds = %31, %18
  call void @llvm.lifetime.end.p0(i64 4, ptr %7) #10
  call void @llvm.lifetime.end.p0(i64 8, ptr %6) #10
  %37 = load i1, ptr %3, align 1
  ret i1 %37

38:                                               ; preds = %32
  %39 = load ptr, ptr %10, align 8
  %40 = load i32, ptr %11, align 4
  %41 = insertvalue { ptr, i32 } poison, ptr %39, 0
  %42 = insertvalue { ptr, i32 } %41, i32 %40, 1
  resume { ptr, i32 } %42
}