; Function Attrs: mustprogress uwtable
define noundef zeroext i1 @_ZN4base16HistogramSamples13AddFromPickleEPNS_14PickleIteratorE(ptr noundef nonnull align 8 dereferenceable(40) %0, ptr noundef nonnull %1) unnamed_addr #5 align 2 personality ptr @__gxx_personality_v0 {
  %3 = alloca i64, align 8
  %4 = alloca i32, align 4
  %5 = alloca %"class.base::(anonymous namespace)::SampleCountPickleIterator", align 8
  call void @llvm.lifetime.start.p0(i64 8, ptr nonnull %3) #14
  call void @llvm.lifetime.start.p0(i64 4, ptr nonnull %4) #14
  %6 = call noundef zeroext i1 @_ZN4base14PickleIterator9ReadInt64EPl(ptr noundef nonnull align 8 dereferenceable(24) %1, ptr noundef nonnull %3)
  br i1 %6, label %7, label %34

7:                                                ; preds = %2
  %8 = call noundef zeroext i1 @_ZN4base14PickleIterator7ReadIntEPi(ptr noundef nonnull align 8 dereferenceable(24) %1, ptr noundef nonnull %4)
  br i1 %8, label %9, label %34

9:                                                ; preds = %7
  %10 = load i64, ptr %3, align 8, !tbaa !17
  %11 = getelementptr inbounds nuw i8, ptr %0, i64 32
  %12 = load ptr, ptr %11, align 8, !tbaa !6
  %13 = getelementptr inbounds nuw i8, ptr %12, i64 8
  %14 = atomicrmw volatile add ptr %13, i64 %10 monotonic, align 8
  %15 = load ptr, ptr %11, align 8, !tbaa !6
  %16 = getelementptr inbounds nuw i8, ptr %15, i64 16
  %17 = load i32, ptr %4, align 4, !tbaa !18
  %18 = atomicrmw volatile add ptr %16, i32 %17 monotonic, align 4
  call void @llvm.lifetime.start.p0(i64 32, ptr nonnull %5) #14
  store ptr getelementptr inbounds nuw inrange(-16, 48) (i8, ptr @_ZTVN4base12_GLOBAL__N_125SampleCountPickleIteratorE, i64 16), ptr %5, align 8, !tbaa !3
  %19 = getelementptr inbounds nuw i8, ptr %5, i64 8
  store ptr %1, ptr %19, align 8, !tbaa !19
  %20 = getelementptr inbounds nuw i8, ptr %5, i64 28
  store i8 0, ptr %20, align 4, !tbaa !24
  %21 = getelementptr inbounds nuw i8, ptr %5, i64 16
  %22 = call noundef zeroext i1 @_ZN4base14PickleIterator7ReadIntEPi(ptr noundef nonnull align 8 dereferenceable(24) %1, ptr noundef nonnull %21)
  br i1 %22, label %.noexc3.i, label %29

.noexc3.i:                                        ; preds = %9
  %23 = load ptr, ptr %19, align 8, !tbaa !19
  %24 = getelementptr inbounds nuw i8, ptr %5, i64 20
  %25 = call noundef zeroext i1 @_ZN4base14PickleIterator7ReadIntEPi(ptr noundef nonnull align 8 dereferenceable(24) %23, ptr noundef nonnull %24)
  br i1 %25, label %.noexc4.i, label %29

.noexc4.i:                                        ; preds = %.noexc3.i
  %26 = load ptr, ptr %19, align 8, !tbaa !19
  %27 = getelementptr inbounds nuw i8, ptr %5, i64 24
  %28 = call noundef zeroext i1 @_ZN4base14PickleIterator7ReadIntEPi(ptr noundef nonnull align 8 dereferenceable(24) %26, ptr noundef nonnull %27)
  br i1 %28, label %_ZN4base12_GLOBAL__N_125SampleCountPickleIteratorC2EPNS_14PickleIteratorE.exit, label %29

29:                                               ; preds = %.noexc4.i, %.noexc3.i, %9
  store i8 1, ptr %20, align 4, !tbaa !24
  br label %_ZN4base12_GLOBAL__N_125SampleCountPickleIteratorC2EPNS_14PickleIteratorE.exit

_ZN4base12_GLOBAL__N_125SampleCountPickleIteratorC2EPNS_14PickleIteratorE.exit: ; preds = %.noexc4.i, %29
  %30 = load ptr, ptr %0, align 8, !tbaa !3
  %31 = getelementptr inbounds nuw i8, ptr %30, i64 80
  %32 = load ptr, ptr %31, align 8
  %33 = call noundef zeroext i1 %32(ptr noundef nonnull align 8 dereferenceable(40) %0, ptr noundef nonnull %5, i32 noundef 0)
  call void @llvm.lifetime.end.p0(i64 32, ptr nonnull %5) #14
  br label %34

34:                                               ; preds = %2, %7, %_ZN4base12_GLOBAL__N_125SampleCountPickleIteratorC2EPNS_14PickleIteratorE.exit
  %.0 = phi i1 [ %33, %_ZN4base12_GLOBAL__N_125SampleCountPickleIteratorC2EPNS_14PickleIteratorE.exit ], [ false, %7 ], [ false, %2 ]
  call void @llvm.lifetime.end.p0(i64 4, ptr nonnull %4) #14
  call void @llvm.lifetime.end.p0(i64 8, ptr nonnull %3) #14
  ret i1 %.0
}